(lp0
F0.7099447513812155
aF0.7085635359116023
aF0.7085635359116023
aF0.7113259668508287
aF0.7168508287292817
aF0.7251381215469613
aF0.7334254143646409
aF0.7458563535911602
aF0.7651933701657458
aF0.7859116022099447
aF0.8024861878453039
aF0.8149171270718232
aF0.8232044198895028
aF0.830110497237569
aF0.835635359116022
aF0.8397790055248618
aF0.8425414364640884
aF0.7113259668508287
aF0.7140883977900553
aF0.7279005524861878
aF0.7430939226519337
aF0.7541436464088398
aF0.7693370165745856
aF0.7817679558011049
aF0.7969613259668509
aF0.8107734806629834
aF0.819060773480663
aF0.761049723756906
aF0.7596685082872928
aF0.7582872928176796
aF0.7569060773480663
aF0.7403314917127072
aF0.7486187845303868
aF0.7569060773480663
aF0.7665745856353591
aF0.7762430939226519
aF0.7237569060773481
aF0.7306629834254144
aF0.738950276243094
aF0.7472375690607734
aF0.738950276243094
aF0.7292817679558011
aF0.7776243093922652
aF0.7859116022099447
aF0.7955801104972375
aF0.8038674033149171
aF0.7955801104972375
aF0.7859116022099447
aF0.7334254143646409
aF0.7417127071823204
aF0.7513812154696132
aF0.7582872928176796
aF0.7679558011049724
aF0.7817679558011049
aF0.7983425414364641
aF0.7831491712707183
aF0.7693370165745856
aF0.7596685082872928
aF0.7513812154696132
aF0.7417127071823204
aF0.7375690607734806
aF0.7513812154696132
aF0.7582872928176796
aF0.7679558011049724
aF0.7941988950276243
aF0.7679558011049724
aF0.7596685082872928
aF0.7527624309392266
aF0.39293598233995586
aF0.4194260485651214
aF0.445916114790287
aF0.47240618101545256
aF0.5011037527593819
aF0.5231788079470199
aF0.5474613686534217
aF0.5673289183222958
aF0.5761589403973509
aF0.5717439293598234
aF0.5562913907284768
aF0.5364238410596026
aF0.5121412803532008
aF0.4856512141280353
aF0.45253863134657835
aF0.423841059602649
aF0.39293598233995586
aF0.3818984547461369
aF0.3598233995584989
aF0.3554083885209713
aF0.3598233995584989
aF0.3730684326710817
aF0.3730684326710817
aF0.3598233995584989
aF0.3554083885209713
aF0.36423841059602646
aF0.3818984547461369
aF0.39514348785871967
aF0.41501103752759383
aF0.434878587196468
aF0.45474613686534215
aF0.46578366445916114
aF0.47019867549668876
aF0.47240618101545256
aF0.47240618101545256
aF0.46799116997792495
aF0.3995584988962472
aF0.39072847682119205
aF0.39072847682119205
aF0.40176600441501104
aF0.40397350993377484
aF0.40176600441501104
aF0.40397350993377484
aF0.39293598233995586
aF0.39293598233995586
aF0.40397350993377484
aF0.40618101545253865
aF0.40618101545253865
aF0.4878587196467991
aF0.48344370860927155
aF0.48344370860927155
aF0.4856512141280353
aF0.4856512141280353
aF0.4856512141280353
aF0.4900662251655629
aF0.5253863134657837
aF0.5364238410596026
aF0.5364238410596026
aF0.5342163355408388
aF0.5209713024282561
aF0.4922737306843267
aF0.4922737306843267
aF0.4922737306843267
aF0.4922737306843267
aF0.49448123620309054
aF0.5231788079470199
aF0.5231788079470199
aF0.5187637969094923
a.