(lp0
F0.22833333333333333
aF0.21833333333333332
aF0.22333333333333333
aF0.23166666666666666
aF0.25666666666666665
aF0.28
aF0.30666666666666664
aF0.35833333333333334
aF0.415
aF0.4683333333333333
aF0.5316666666666666
aF0.5916666666666667
aF0.6416666666666667
aF0.6683333333333333
aF0.6883333333333334
aF0.7
aF0.7183333333333334
aF0.25166666666666665
aF0.27
aF0.30333333333333334
aF0.3416666666666667
aF0.37333333333333335
aF0.45
aF0.495
aF0.5466666666666666
aF0.5916666666666667
aF0.6166666666666667
aF0.3933333333333333
aF0.38666666666666666
aF0.38
aF0.375
aF0.3383333333333333
aF0.3566666666666667
aF0.38666666666666666
aF0.41833333333333333
aF0.4483333333333333
aF0.275
aF0.3
aF0.33
aF0.35833333333333334
aF0.33
aF0.3
aF0.47
aF0.49833333333333335
aF0.53
aF0.56
aF0.53
aF0.49833333333333335
aF0.3
aF0.335
aF0.36666666666666664
aF0.39666666666666667
aF0.42833333333333334
aF0.4683333333333333
aF0.5383333333333333
aF0.47
aF0.43166666666666664
aF0.3983333333333333
aF0.36666666666666664
aF0.32666666666666666
aF0.31833333333333336
aF0.36666666666666664
aF0.39666666666666667
aF0.43
aF0.5266666666666666
aF0.43
aF0.39666666666666667
aF0.36666666666666664
aF0.28888888888888886
aF0.33
aF0.37
aF0.4111111111111111
aF0.44222222222222224
aF0.4688888888888889
aF0.4955555555555556
aF0.5211111111111111
aF0.5266666666666666
aF0.5166666666666667
aF0.4988888888888889
aF0.4822222222222222
aF0.4588888888888889
aF0.4255555555555556
aF0.3811111111111111
aF0.3433333333333333
aF0.3022222222222222
aF0.25333333333333335
aF0.22555555555555556
aF0.21777777777777776
aF0.2222222222222222
aF0.2311111111111111
aF0.22777777777777777
aF0.21777777777777776
aF0.21888888888888888
aF0.22666666666666666
aF0.24666666666666667
aF0.25333333333333335
aF0.2733333333333333
aF0.2922222222222222
aF0.31444444444444447
aF0.3288888888888889
aF0.34
aF0.3477777777777778
aF0.3422222222222222
aF0.33
aF0.2644444444444444
aF0.26555555555555554
aF0.2611111111111111
aF0.25666666666666665
aF0.2611111111111111
aF0.26555555555555554
aF0.2611111111111111
aF0.2677777777777778
aF0.2722222222222222
aF0.27111111111111114
aF0.2722222222222222
aF0.2677777777777778
aF0.3888888888888889
aF0.37777777777777777
aF0.37666666666666665
aF0.38
aF0.37555555555555553
aF0.3811111111111111
aF0.39
aF0.4255555555555556
aF0.42777777777777776
aF0.4266666666666667
aF0.4266666666666667
aF0.42333333333333334
aF0.3933333333333333
aF0.3844444444444444
aF0.3877777777777778
aF0.3844444444444444
aF0.39222222222222225
aF0.41333333333333333
aF0.4166666666666667
aF0.41555555555555557
a.