(lp0
F0.2554858934169279
aF0.2445141065830721
aF0.2476489028213166
aF0.2554858934169279
aF0.26880877742946707
aF0.29231974921630094
aF0.3221003134796238
aF0.3510971786833856
aF0.390282131661442
aF0.43573667711598746
aF0.4788401253918495
aF0.5188087774294671
aF0.5540752351097179
aF0.5721003134796239
aF0.5830721003134797
aF0.591692789968652
aF0.5971786833855799
aF0.2664576802507837
aF0.28134796238244514
aF0.30956112852664575
aF0.3440438871473354
aF0.3769592476489028
aF0.445141065830721
aF0.48119122257053293
aF0.5188087774294671
aF0.54858934169279
aF0.5650470219435737
aF0.40282131661442006
aF0.4004702194357367
aF0.39655172413793105
aF0.39184952978056425
aF0.3565830721003135
aF0.3738244514106583
aF0.39184952978056425
aF0.41379310344827586
aF0.4333855799373041
aF0.29858934169278994
aF0.3181818181818182
aF0.3432601880877743
aF0.36363636363636365
aF0.3432601880877743
aF0.31739811912225707
aF0.4553291536050157
aF0.48119122257053293
aF0.5047021943573667
aF0.5250783699059561
aF0.5023510971786834
aF0.47962382445141066
aF0.3236677115987461
aF0.3440438871473354
aF0.36912225705329155
aF0.390282131661442
aF0.40752351097178685
aF0.43573667711598746
aF0.46551724137931033
aF0.43573667711598746
aF0.4059561128526646
aF0.3847962382445141
aF0.365987460815047
aF0.3393416927899687
aF0.3385579937304075
aF0.36912225705329155
aF0.3879310344827586
aF0.4067398119122257
aF0.45141065830721006
aF0.4067398119122257
aF0.3847962382445141
aF0.36912225705329155
aF0.3308333333333333
aF0.37416666666666665
aF0.4191666666666667
aF0.4666666666666667
aF0.5225
aF0.5683333333333334
aF0.6133333333333333
aF0.6441666666666667
aF0.655
aF0.6441666666666667
aF0.6216666666666667
aF0.5841666666666666
aF0.5391666666666667
aF0.49
aF0.44666666666666666
aF0.4066666666666667
aF0.3641666666666667
aF0.29333333333333333
aF0.2633333333333333
aF0.245
aF0.24333333333333335
aF0.25416666666666665
aF0.26
aF0.25666666666666665
aF0.2625
aF0.2833333333333333
aF0.31083333333333335
aF0.31
aF0.33666666666666667
aF0.3591666666666667
aF0.3875
aF0.425
aF0.43
aF0.43416666666666665
aF0.4325
aF0.4325
aF0.32166666666666666
aF0.30916666666666665
aF0.31083333333333335
aF0.32416666666666666
aF0.33
aF0.3283333333333333
aF0.33
aF0.31833333333333336
aF0.32166666666666666
aF0.33666666666666667
aF0.3416666666666667
aF0.3383333333333333
aF0.5083333333333333
aF0.4875
aF0.4791666666666667
aF0.4841666666666667
aF0.4825
aF0.49333333333333335
aF0.5191666666666667
aF0.5475
aF0.555
aF0.5558333333333333
aF0.5533333333333333
aF0.5383333333333333
aF0.5083333333333333
aF0.5033333333333333
aF0.505
aF0.5041666666666667
aF0.5158333333333334
aF0.53
aF0.5291666666666667
aF0.5275
a.