(lp0
F0.31204379562043794
aF0.3293795620437956
aF0.3448905109489051
aF0.36222627737226276
aF0.3841240875912409
aF0.41058394160583944
aF0.4543795620437956
aF0.49635036496350365
aF0.531021897810219
aF0.5593065693430657
aF0.5885036496350365
aF0.6113138686131386
aF0.6268248175182481
aF0.6395985401459854
aF0.6395985401459854
aF0.6432481751824818
aF0.6441605839416058
aF0.34306569343065696
aF0.3604014598540146
aF0.3841240875912409
aF0.41788321167883213
aF0.4489051094890511
aF0.510036496350365
aF0.5401459854014599
aF0.5693430656934306
aF0.593065693430657
aF0.6076642335766423
aF0.48722627737226276
aF0.4908759124087591
aF0.49452554744525545
aF0.4981751824817518
aF0.4635036496350365
aF0.48175182481751827
aF0.4990875912408759
aF0.5145985401459854
aF0.5291970802919708
aF0.38503649635036497
aF0.4041970802919708
aF0.42427007299270075
aF0.44343065693430656
aF0.4260948905109489
aF0.40602189781021897
aF0.5237226277372263
aF0.5383211678832117
aF0.5593065693430657
aF0.5793795620437956
aF0.5638686131386861
aF0.541970802919708
aF0.42974452554744524
aF0.45711678832116787
aF0.48905109489051096
aF0.5036496350364964
aF0.5164233576642335
aF0.5447080291970803
aF0.5711678832116789
aF0.552007299270073
aF0.5291970802919708
aF0.5136861313868614
aF0.4972627737226277
aF0.46441605839416056
aF0.43795620437956206
aF0.4908759124087591
aF0.5045620437956204
aF0.5191605839416058
aF0.5647810218978102
aF0.5255474452554745
aF0.510036496350365
aF0.4954379562043796
aF0.5424973767051416
aF0.5886673662119623
aF0.6390346274921301
aF0.6810073452256034
aF0.7219307450157397
aF0.7523609653725079
aF0.7817418677859391
aF0.7922350472193075
aF0.789087093389297
aF0.7712486883525709
aF0.7408184679958028
aF0.7030430220356768
aF0.664218258132214
aF0.6222455403987408
aF0.5781741867785939
aF0.5362014690451207
aF0.49527806925498424
aF0.472193074501574
aF0.44176285414480587
aF0.4218258132214061
aF0.4176285414480588
aF0.4218258132214061
aF0.41133263378803775
aF0.40083945435466944
aF0.39979013641133265
aF0.41028331584470096
aF0.4354669464847849
aF0.46379853095487933
aF0.4879328436516264
aF0.5120671563483735
aF0.5383001049317944
aF0.5750262329485835
aF0.5739769150052466
aF0.5729275970619098
aF0.5676810073452256
aF0.5624344176285414
aF0.5015739769150053
aF0.4879328436516264
aF0.4837355718782791
aF0.4931794333683106
aF0.5026232948583421
aF0.5068205666316894
aF0.4826862539349423
aF0.46799580272822666
aF0.4648478488982162
aF0.47114375655823715
aF0.48163693599160545
aF0.4837355718782791
aF0.6537250786988458
aF0.6316894018887723
aF0.6180482686253935
aF0.6190975865687304
aF0.6128016789087093
aF0.614900314795383
aF0.6253934942287513
aF0.6778593913955928
aF0.6988457502623295
aF0.7051416579223505
aF0.7072402938090241
aF0.6998950682056663
aF0.6537250786988458
aF0.6327387198321092
aF0.6327387198321092
aF0.6285414480587618
aF0.6285414480587618
aF0.6810073452256034
aF0.6852046169989506
aF0.6883525708289612
a.